; Function Attrs: mustprogress uwtable
define void @_ZN7rocksdb14MockFileSystem16GetTestDirectoryERKNS_9IOOptionsEPNSt7__cxx1112basic_stringIcSt11char_traitsIcESaIcEEEPNS_14IODebugContextE(ptr dead_on_unwind noalias writable writeonly sret(%"class.rocksdb::IOStatus") align 8 captures(none) initializes((0, 6), (8, 16)) %0, ptr nonnull readnone align 8 captures(none) %1, ptr nonnull readnone align 8 captures(none) %2, ptr noundef nonnull %3, ptr readnone captures(none) %4) unnamed_addr #1 align 2 personality ptr @__gxx_personality_v0 {
  %6 = getelementptr inbounds nuw i8, ptr %3, i64 8
  %7 = load i64, ptr %6, align 8, !tbaa !31
  %8 = tail call noundef nonnull align 8 dereferenceable(32) ptr @_ZNSt7__cxx1112basic_stringIcSt11char_traitsIcESaIcEE10_M_replaceEmmPKcm(ptr noundef nonnull align 8 dereferenceable(32) %3, i64 noundef 0, i64 noundef %7, ptr noundef nonnull @.str.12, i64 noundef 5)
  store i8 0, ptr %0, align 8, !tbaa !114, !alias.scope !446
  %9 = getelementptr inbounds nuw i8, ptr %0, i64 1
  store i8 0, ptr %9, align 1, !tbaa !139, !alias.scope !446
  %10 = getelementptr inbounds nuw i8, ptr %0, i64 2
  %11 = getelementptr inbounds nuw i8, ptr %0, i64 8
  store ptr null, ptr %11, align 8, !tbaa !143, !alias.scope !446
  store i32 0, ptr %10, align 2, !alias.scope !446
  ret void
}